target datalayout = "e-m:e-p270:32:32-p271:32:32-p272:64:64-i64:64-i128:128-f80:128-n8:16:32:64-S128"
target triple = "x86_64-pc-linux-gnu"

%"class.cv::utils::trace::details::Region" = type <{ ptr, i32, [4 x i8] }>

; Function Attrs: mustprogress nounwind uwtable
define internal noundef signext i8 @_ZN2cvL13saturate_castIaEET_i(i32 noundef %0) #2 {
  %2 = alloca i32, align 4
  store i32 %0, ptr %2, align 4
  %3 = load i32, ptr %2, align 4
  %4 = sub nsw i32 %3, -128
  %5 = icmp ule i32 %4, 255
  br i1 %5, label %6, label %8

6:                                                ; preds = %1
  %7 = load i32, ptr %2, align 4
  br label %12

8:                                                ; preds = %1
  %9 = load i32, ptr %2, align 4
  %10 = icmp sgt i32 %9, 0
  %11 = select i1 %10, i32 127, i32 -128
  br label %12

12:                                               ; preds = %8, %6
  %13 = phi i32 [ %7, %6 ], [ %11, %8 ]
  %14 = trunc i32 %13 to i8
  ret i8 %14
}

; Function Attrs: mustprogress uwtable
define internal noundef i32 @_ZL7cvRoundf(float noundef %0) #7 {
  %2 = alloca <4 x float>, align 16
  %3 = alloca float, align 4
  %4 = alloca <4 x float>, align 16
  %5 = alloca float, align 4
  %6 = alloca <4 x float>, align 16
  store float %0, ptr %5, align 4
  %7 = load float, ptr %5, align 4
  store float %7, ptr %3, align 4
  %8 = load float, ptr %3, align 4
  %9 = insertelement <4 x float> poison, float %8, i32 0
  %10 = insertelement <4 x float> %9, float 0.000000e+00, i32 1
  %11 = insertelement <4 x float> %10, float 0.000000e+00, i32 2
  %12 = insertelement <4 x float> %11, float 0.000000e+00, i32 3
  store <4 x float> %12, ptr %4, align 16
  %13 = load <4 x float>, ptr %4, align 16
  store <4 x float> %13, ptr %6, align 16
  %14 = load <4 x float>, ptr %6, align 16
  store <4 x float> %14, ptr %2, align 16
  %15 = load <4 x float>, ptr %2, align 16
  %16 = call noundef i32 @llvm.x86.sse.cvtss2si(<4 x float> %15)
  ret i32 %16
}

; Function Attrs: mustprogress uwtable
define internal noundef signext i8 @_ZN2cvL13saturate_castIaEET_f(float noundef %0) #0 {
  %2 = alloca float, align 4
  %3 = alloca i32, align 4
  store float %0, ptr %2, align 4
  %4 = load float, ptr %2, align 4
  %5 = call noundef i32 @_ZL7cvRoundf(float noundef %4)
  store i32 %5, ptr %3, align 4
  %6 = load i32, ptr %3, align 4
  %7 = call noundef signext i8 @_ZN2cvL13saturate_castIaEET_i(i32 noundef %6)
  ret i8 %7
}

; Function Attrs: mustprogress nounwind uwtable
define linkonce_odr hidden void @_ZN2cv12hal_baseline9v_cleanupEv() #2 comdat {
  ret void
}

; Function Attrs: mustprogress uwtable
define internal noundef signext i8 @_ZN2cv3hal12cpu_baselineL5c_divIafEET_S3_S3_T0_(i8 noundef signext %0, i8 noundef signext %1, float noundef %2) #0 {
  %4 = alloca i8, align 1
  %5 = alloca i8, align 1
  %6 = alloca float, align 4
  store i8 %0, ptr %4, align 1
  store i8 %1, ptr %5, align 1
  store float %2, ptr %6, align 4
  %7 = load float, ptr %6, align 4
  %8 = load i8, ptr %4, align 1
  %9 = sitofp i8 %8 to float
  %10 = fmul float %7, %9
  %11 = load i8, ptr %5, align 1
  %12 = sext i8 %11 to i32
  %13 = sitofp i32 %12 to float
  %14 = fdiv float %10, %13
  %15 = call noundef signext i8 @_ZN2cvL13saturate_castIaEET_f(float noundef %14)
  ret i8 %15
}

; Function Attrs: mustprogress uwtable
define linkonce_odr hidden void @_ZN2cv12hal_baseline11simd128_cpp10vx_cleanupEv() #0 comdat {
  call void @_ZN2cv12hal_baseline9v_cleanupEv()
  ret void
}

; Function Attrs: mustprogress uwtable
define linkonce_odr hidden noundef signext i8 @_ZN2cv3hal12cpu_baseline12op_div_scaleIafNS_12hal_baseline5v_regIaLi16EEEE1rEaaPKf(i8 noundef signext %0, i8 noundef signext %1, ptr noundef %2) #0 comdat align 2 {
  %4 = alloca i8, align 1
  %5 = alloca i8, align 1
  %6 = alloca ptr, align 8
  store i8 %0, ptr %4, align 1
  store i8 %1, ptr %5, align 1
  store ptr %2, ptr %6, align 8
  %7 = load i8, ptr %5, align 1
  %8 = sext i8 %7 to i32
  %9 = icmp ne i32 %8, 0
  br i1 %9, label %10, label %16

10:                                               ; preds = %3
  %11 = load i8, ptr %4, align 1
  %12 = load i8, ptr %5, align 1
  %13 = load ptr, ptr %6, align 8
  %14 = load float, ptr %13, align 4
  %15 = call noundef signext i8 @_ZN2cv3hal12cpu_baselineL5c_divIafEET_S3_S3_T0_(i8 noundef signext %11, i8 noundef signext %12, float noundef %14)
  br label %17

16:                                               ; preds = %3
  br label %17

17:                                               ; preds = %16, %10
  %18 = phi i8 [ %15, %10 ], [ 0, %16 ]
  ret i8 %18
}

; Function Attrs: mustprogress uwtable
define internal void @_ZN2cv3hal12cpu_baselineL11scalar_loopINS1_12op_div_scaleEafNS_12hal_baseline5v_regIaLi16EEEEEvPKT0_mS9_mPS7_miiPKT1_(ptr noundef %0, i64 noundef %1, ptr noundef %2, i64 noundef %3, ptr noundef %4, i64 noundef %5, i32 noundef %6, i32 noundef %7, ptr noundef %8) #0 {
  %10 = alloca ptr, align 8
  %11 = alloca i64, align 8
  %12 = alloca ptr, align 8
  %13 = alloca i64, align 8
  %14 = alloca ptr, align 8
  %15 = alloca i64, align 8
  %16 = alloca i32, align 4
  %17 = alloca i32, align 4
  %18 = alloca ptr, align 8
  %19 = alloca i32, align 4
  store ptr %0, ptr %10, align 8
  store i64 %1, ptr %11, align 8
  store ptr %2, ptr %12, align 8
  store i64 %3, ptr %13, align 8
  store ptr %4, ptr %14, align 8
  store i64 %5, ptr %15, align 8
  store i32 %6, ptr %16, align 4
  store i32 %7, ptr %17, align 4
  store ptr %8, ptr %18, align 8
  %20 = load i64, ptr %11, align 8
  %21 = udiv i64 %20, 1
  store i64 %21, ptr %11, align 8
  %22 = load i64, ptr %13, align 8
  %23 = udiv i64 %22, 1
  store i64 %23, ptr %13, align 8
  %24 = load i64, ptr %15, align 8
  %25 = udiv i64 %24, 1
  store i64 %25, ptr %15, align 8
  br label %26

26:                                               ; preds = %56, %9
  %27 = load i32, ptr %17, align 4
  %28 = add nsw i32 %27, -1
  store i32 %28, ptr %17, align 4
  %29 = icmp ne i32 %27, 0
  br i1 %29, label %30, label %66

30:                                               ; preds = %26
  store i32 0, ptr %19, align 4
  br label %31

31:                                               ; preds = %52, %30
  %32 = load i32, ptr %19, align 4
  %33 = load i32, ptr %16, align 4
  %34 = icmp slt i32 %32, %33
  br i1 %34, label %35, label %55

35:                                               ; preds = %31
  %36 = load ptr, ptr %10, align 8
  %37 = load i32, ptr %19, align 4
  %38 = sext i32 %37 to i64
  %39 = getelementptr inbounds i8, ptr %36, i64 %38
  %40 = load i8, ptr %39, align 1
  %41 = load ptr, ptr %12, align 8
  %42 = load i32, ptr %19, align 4
  %43 = sext i32 %42 to i64
  %44 = getelementptr inbounds i8, ptr %41, i64 %43
  %45 = load i8, ptr %44, align 1
  %46 = load ptr, ptr %18, align 8
  %47 = call noundef signext i8 @_ZN2cv3hal12cpu_baseline12op_div_scaleIafNS_12hal_baseline5v_regIaLi16EEEE1rEaaPKf(i8 noundef signext %40, i8 noundef signext %45, ptr noundef %46)
  %48 = load ptr, ptr %14, align 8
  %49 = load i32, ptr %19, align 4
  %50 = sext i32 %49 to i64
  %51 = getelementptr inbounds i8, ptr %48, i64 %50
  store i8 %47, ptr %51, align 1
  br label %52

52:                                               ; preds = %35
  %53 = load i32, ptr %19, align 4
  %54 = add nsw i32 %53, 1
  store i32 %54, ptr %19, align 4
  br label %31, !llvm.loop !202

55:                                               ; preds = %31
  br label %56

56:                                               ; preds = %55
  %57 = load i64, ptr %11, align 8
  %58 = load ptr, ptr %10, align 8
  %59 = getelementptr inbounds i8, ptr %58, i64 %57
  store ptr %59, ptr %10, align 8
  %60 = load i64, ptr %13, align 8
  %61 = load ptr, ptr %12, align 8
  %62 = getelementptr inbounds i8, ptr %61, i64 %60
  store ptr %62, ptr %12, align 8
  %63 = load i64, ptr %15, align 8
  %64 = load ptr, ptr %14, align 8
  %65 = getelementptr inbounds i8, ptr %64, i64 %63
  store ptr %65, ptr %14, align 8
  br label %26, !llvm.loop !203

66:                                               ; preds = %26
  call void @_ZN2cv12hal_baseline11simd128_cpp10vx_cleanupEv()
  ret void
}

; Function Attrs: mustprogress nounwind uwtable
define linkonce_odr hidden void @_ZN2cv5utils5trace7details6RegionD2Ev(ptr noundef nonnull align 8 dereferenceable(12) %0) unnamed_addr #2 comdat align 2 personality ptr @__gxx_personality_v0 {
  %2 = alloca ptr, align 8
  store ptr %0, ptr %2, align 8
  %3 = load ptr, ptr %2, align 8
  %4 = getelementptr inbounds %"class.cv::utils::trace::details::Region", ptr %3, i32 0, i32 1
  %5 = load i32, ptr %4, align 8
  %6 = icmp ne i32 %5, 0
  br i1 %6, label %7, label %9

7:                                                ; preds = %1
  invoke void @_ZN2cv5utils5trace7details6Region7destroyEv(ptr noundef nonnull align 8 dereferenceable(12) %3)
          to label %8 unwind label %10

8:                                                ; preds = %7
  br label %9

9:                                                ; preds = %8, %1
  ret void

10:                                               ; preds = %7
  %11 = landingpad { ptr, i32 }
          catch ptr null
  %12 = extractvalue { ptr, i32 } %11, 0
  call void @__clang_call_terminate(ptr %12) #10
  unreachable
}

; Function Attrs: mustprogress uwtable
define internal void @_ZN2cv3hal12cpu_baselineL8div_loopIaNS_12hal_baseline5v_regIaLi16EEEEEvPKT_mS8_mPS6_miiPKd(ptr noundef %0, i64 noundef %1, ptr noundef %2, i64 noundef %3, ptr noundef %4, i64 noundef %5, i32 noundef %6, i32 noundef %7, ptr noundef %8) #0 {
  %10 = alloca ptr, align 8
  %11 = alloca i64, align 8
  %12 = alloca ptr, align 8
  %13 = alloca i64, align 8
  %14 = alloca ptr, align 8
  %15 = alloca i64, align 8
  %16 = alloca i32, align 4
  %17 = alloca i32, align 4
  %18 = alloca ptr, align 8
  %19 = alloca float, align 4
  store ptr %0, ptr %10, align 8
  store i64 %1, ptr %11, align 8
  store ptr %2, ptr %12, align 8
  store i64 %3, ptr %13, align 8
  store ptr %4, ptr %14, align 8
  store i64 %5, ptr %15, align 8
  store i32 %6, ptr %16, align 4
  store i32 %7, ptr %17, align 4
  store ptr %8, ptr %18, align 8
  %20 = load ptr, ptr %18, align 8
  %21 = load double, ptr %20, align 8
  %22 = fptrunc double %21 to float
  store float %22, ptr %19, align 4
  %23 = load ptr, ptr %10, align 8
  %24 = load i64, ptr %11, align 8
  %25 = load ptr, ptr %12, align 8
  %26 = load i64, ptr %13, align 8
  %27 = load ptr, ptr %14, align 8
  %28 = load i64, ptr %15, align 8
  %29 = load i32, ptr %16, align 4
  %30 = load i32, ptr %17, align 4
  call void @_ZN2cv3hal12cpu_baselineL11scalar_loopINS1_12op_div_scaleEafNS_12hal_baseline5v_regIaLi16EEEEEvPKT0_mS9_mPS7_miiPKT1_(ptr noundef %23, i64 noundef %24, ptr noundef %25, i64 noundef %26, ptr noundef %27, i64 noundef %28, i32 noundef %29, i32 noundef %30, ptr noundef %19)
  ret void
}

; Function Attrs: mustprogress uwtable
define hidden void @_ZN2cv3hal12cpu_baseline5div8sEPKamS3_mPamiiPKd(ptr noundef %0, i64 noundef %1, ptr noundef %2, i64 noundef %3, ptr noundef %4, i64 noundef %5, i32 noundef %6, i32 noundef %7, ptr noundef %8) #0 personality ptr @__gxx_personality_v0 {
  %10 = alloca ptr, align 8
  %11 = alloca i64, align 8
  %12 = alloca ptr, align 8
  %13 = alloca i64, align 8
  %14 = alloca ptr, align 8
  %15 = alloca i64, align 8
  %16 = alloca i32, align 4
  %17 = alloca i32, align 4
  %18 = alloca ptr, align 8
  %19 = alloca %"class.cv::utils::trace::details::Region", align 8
  %20 = alloca ptr, align 8
  %21 = alloca i32, align 4
  store ptr %0, ptr %10, align 8
  store i64 %1, ptr %11, align 8
  store ptr %2, ptr %12, align 8
  store i64 %3, ptr %13, align 8
  store ptr %4, ptr %14, align 8
  store i64 %5, ptr %15, align 8
  store i32 %6, ptr %16, align 4
  store i32 %7, ptr %17, align 4
  store ptr %8, ptr %18, align 8
  call void @_ZN2cv5utils5trace7details6RegionC1ERKNS3_21LocationStaticStorageE(ptr noundef nonnull align 8 dereferenceable(12) %19, ptr noundef nonnull align 8 dereferenceable(32) @_ZZN2cv3hal12cpu_baseline5div8sEPKamS3_mPamiiPKdE26__cv_trace_location_fn1678)
  %22 = load ptr, ptr %10, align 8
  %23 = load i64, ptr %11, align 8
  %24 = load ptr, ptr %12, align 8
  %25 = load i64, ptr %13, align 8
  %26 = load ptr, ptr %14, align 8
  %27 = load i64, ptr %15, align 8
  %28 = load i32, ptr %16, align 4
  %29 = load i32, ptr %17, align 4
  %30 = load ptr, ptr %18, align 8
  invoke void @_ZN2cv3hal12cpu_baselineL8div_loopIaNS_12hal_baseline5v_regIaLi16EEEEEvPKT_mS8_mPS6_miiPKd(ptr noundef %22, i64 noundef %23, ptr noundef %24, i64 noundef %25, ptr noundef %26, i64 noundef %27, i32 noundef %28, i32 noundef %29, ptr noundef %30)
          to label %31 unwind label %32

31:                                               ; preds = %9
  call void @_ZN2cv5utils5trace7details6RegionD2Ev(ptr noundef nonnull align 8 dereferenceable(12) %19) #9
  ret void

32:                                               ; preds = %9
  %33 = landingpad { ptr, i32 }
          cleanup
  %34 = extractvalue { ptr, i32 } %33, 0
  store ptr %34, ptr %20, align 8
  %35 = extractvalue { ptr, i32 } %33, 1
  store i32 %35, ptr %21, align 4
  call void @_ZN2cv5utils5trace7details6RegionD2Ev(ptr noundef nonnull align 8 dereferenceable(12) %19) #9
  br label %36

36:                                               ; preds = %32
  %37 = load ptr, ptr %20, align 8
  %38 = load i32, ptr %21, align 4
  %39 = insertvalue { ptr, i32 } poison, ptr %37, 0
  %40 = insertvalue { ptr, i32 } %39, i32 %38, 1
  resume { ptr, i32 } %40
}