; Function Attrs: mustprogress uwtable
define hidden void @_ZN2cv3hal12cpu_baseline5div8sEPKamS3_mPamiiPKd(ptr nocapture noundef readonly %0, i64 noundef %1, ptr nocapture noundef readonly %2, i64 noundef %3, ptr nocapture noundef writeonly %4, i64 noundef %5, i32 noundef %6, i32 noundef %7, ptr nocapture noundef readonly %8) local_unnamed_addr #3 personality ptr @__gxx_personality_v0 {
  %10 = alloca %"class.cv::utils::trace::details::Region", align 8
  call void @_ZN2cv5utils5trace7details6RegionC1ERKNS3_21LocationStaticStorageE(ptr noundef nonnull align 8 dereferenceable(12) %10, ptr noundef nonnull align 8 dereferenceable(32) @_ZZN2cv3hal12cpu_baseline5div8sEPKamS3_mPamiiPKdE26__cv_trace_location_fn1678)
  %.val = load double, ptr %8, align 8
  %11 = fptrunc double %.val to float
  %.not24.i.i = icmp ne i32 %7, 0
  %12 = icmp sgt i32 %6, 0
  %or.cond.i.i = and i1 %12, %.not24.i.i
  br i1 %or.cond.i.i, label %.preheader.us.preheader.i.i, label %_ZN2cv3hal12cpu_baselineL8div_loopIaNS_12hal_baseline5v_regIaLi16EEEEEvPKT_mS8_mPS6_miiPKd.exit

.preheader.us.preheader.i.i:                      ; preds = %9
  %wide.trip.count.i.i = zext nneg i32 %6 to i64
  br label %.preheader.us.i.i

.preheader.us.i.i:                                ; preds = %._crit_edge.us.i.i, %.preheader.us.preheader.i.i
  %.in.i.i = phi i32 [ %30, %._crit_edge.us.i.i ], [ %7, %.preheader.us.preheader.i.i ]
  %.01927.us.i.i = phi ptr [ %31, %._crit_edge.us.i.i ], [ %0, %.preheader.us.preheader.i.i ]
  %.02126.us.i.i = phi ptr [ %33, %._crit_edge.us.i.i ], [ %4, %.preheader.us.preheader.i.i ]
  %.02225.us.i.i = phi ptr [ %32, %._crit_edge.us.i.i ], [ %2, %.preheader.us.preheader.i.i ]
  br label %13

13:                                               ; preds = %_ZN2cv3hal12cpu_baseline12op_div_scaleIafNS_12hal_baseline5v_regIaLi16EEEE1rEaaPKf.exit.us.i.i, %.preheader.us.i.i
  %indvars.iv.i.i = phi i64 [ 0, %.preheader.us.i.i ], [ %indvars.iv.next.i.i, %_ZN2cv3hal12cpu_baseline12op_div_scaleIafNS_12hal_baseline5v_regIaLi16EEEE1rEaaPKf.exit.us.i.i ]
  %14 = getelementptr inbounds i8, ptr %.02225.us.i.i, i64 %indvars.iv.i.i
  %15 = load i8, ptr %14, align 1
  %.not.i.us.i.i = icmp eq i8 %15, 0
  br i1 %.not.i.us.i.i, label %_ZN2cv3hal12cpu_baseline12op_div_scaleIafNS_12hal_baseline5v_regIaLi16EEEE1rEaaPKf.exit.us.i.i, label %16

16:                                               ; preds = %13
  %17 = getelementptr inbounds i8, ptr %.01927.us.i.i, i64 %indvars.iv.i.i
  %18 = load i8, ptr %17, align 1
  %19 = sitofp i8 %18 to float
  %20 = fmul float %11, %19
  %21 = sitofp i8 %15 to float
  %22 = fdiv float %20, %21
  %23 = insertelement <4 x float> poison, float %22, i64 0
  %24 = call noundef i32 @llvm.x86.sse.cvtss2si(<4 x float> %23)
  %25 = call i32 @llvm.smax.i32(i32 %24, i32 -128)
  %26 = call i32 @llvm.smin.i32(i32 %25, i32 127)
  %27 = trunc nsw i32 %26 to i8
  br label %_ZN2cv3hal12cpu_baseline12op_div_scaleIafNS_12hal_baseline5v_regIaLi16EEEE1rEaaPKf.exit.us.i.i

_ZN2cv3hal12cpu_baseline12op_div_scaleIafNS_12hal_baseline5v_regIaLi16EEEE1rEaaPKf.exit.us.i.i: ; preds = %16, %13
  %28 = phi i8 [ %27, %16 ], [ 0, %13 ]
  %29 = getelementptr inbounds i8, ptr %.02126.us.i.i, i64 %indvars.iv.i.i
  store i8 %28, ptr %29, align 1
  %indvars.iv.next.i.i = add nuw nsw i64 %indvars.iv.i.i, 1
  %exitcond.not.i.i = icmp eq i64 %indvars.iv.next.i.i, %wide.trip.count.i.i
  br i1 %exitcond.not.i.i, label %._crit_edge.us.i.i, label %13, !llvm.loop !182

._crit_edge.us.i.i:                               ; preds = %_ZN2cv3hal12cpu_baseline12op_div_scaleIafNS_12hal_baseline5v_regIaLi16EEEE1rEaaPKf.exit.us.i.i
  %30 = add nsw i32 %.in.i.i, -1
  %31 = getelementptr inbounds i8, ptr %.01927.us.i.i, i64 %1
  %32 = getelementptr inbounds i8, ptr %.02225.us.i.i, i64 %3
  %33 = getelementptr inbounds i8, ptr %.02126.us.i.i, i64 %5
  %.not.us.i.i = icmp eq i32 %30, 0
  br i1 %.not.us.i.i, label %_ZN2cv3hal12cpu_baselineL8div_loopIaNS_12hal_baseline5v_regIaLi16EEEEEvPKT_mS8_mPS6_miiPKd.exit, label %.preheader.us.i.i, !llvm.loop !183

_ZN2cv3hal12cpu_baselineL8div_loopIaNS_12hal_baseline5v_regIaLi16EEEEEvPKT_mS8_mPS6_miiPKd.exit: ; preds = %._crit_edge.us.i.i, %9
  %34 = getelementptr inbounds i8, ptr %10, i64 8
  %35 = load i32, ptr %34, align 8
  %.not.i = icmp eq i32 %35, 0
  br i1 %.not.i, label %_ZN2cv5utils5trace7details6RegionD2Ev.exit, label %36

36:                                               ; preds = %_ZN2cv3hal12cpu_baselineL8div_loopIaNS_12hal_baseline5v_regIaLi16EEEEEvPKT_mS8_mPS6_miiPKd.exit
  invoke void @_ZN2cv5utils5trace7details6Region7destroyEv(ptr noundef nonnull align 8 dereferenceable(12) %10)
          to label %_ZN2cv5utils5trace7details6RegionD2Ev.exit unwind label %37

37:                                               ; preds = %36
  %38 = landingpad { ptr, i32 }
          catch ptr null
  %39 = extractvalue { ptr, i32 } %38, 0
  call void @__clang_call_terminate(ptr %39) #11
  unreachable

_ZN2cv5utils5trace7details6RegionD2Ev.exit:       ; preds = %_ZN2cv3hal12cpu_baselineL8div_loopIaNS_12hal_baseline5v_regIaLi16EEEEEvPKT_mS8_mPS6_miiPKd.exit, %36
  ret void
}